; Function Attrs: mustprogress uwtable
define noundef ptr @jvmLauncherCreate(i32 noundef %0, ptr noundef %1) local_unnamed_addr #3 personality ptr @__gxx_personality_v0 {
  store i32 %0, ptr @_ZN7SysInfo4argcE, align 4
  store ptr %1, ptr @_ZN7SysInfo4argvE, align 8
  store ptr null, ptr @_ZN12_GLOBAL__N_111jvmLauncherE, align 8
  %3 = tail call noundef i32 @_ZN3app6launchERKSt9nothrow_tPFvvEP11LogAppender(ptr noundef nonnull align 1 dereferenceable(1) @_ZSt7nothrow, ptr noundef nonnull @_ZN12_GLOBAL__N_19launchAppEv, ptr noundef null)
  %4 = load ptr, ptr @_ZN12_GLOBAL__N_111jvmLauncherE, align 8
  %.not = icmp eq ptr %4, null
  br i1 %.not, label %_ZNSt10unique_ptrI3JvmSt14default_deleteIS0_EED2Ev.exit, label %5

5:                                                ; preds = %2
  %6 = tail call noundef ptr @_ZNK3Jvm14exportLauncherEv(ptr noundef nonnull align 8 dereferenceable(104) %4)
  %7 = load ptr, ptr @_ZN12_GLOBAL__N_111jvmLauncherE, align 8
  %.not.i = icmp eq ptr %7, null
  br i1 %.not.i, label %_ZNSt10unique_ptrI3JvmSt14default_deleteIS0_EED2Ev.exit, label %_ZNKSt14default_deleteI3JvmEclEPS0_.exit.i

_ZNKSt14default_deleteI3JvmEclEPS0_.exit.i:       ; preds = %5
  tail call void @_ZN3JvmD1Ev(ptr noundef nonnull align 8 dereferenceable(104) %7) #14
  tail call void @_ZdlPvm(ptr noundef nonnull %7, i64 noundef 104) #15
  br label %_ZNSt10unique_ptrI3JvmSt14default_deleteIS0_EED2Ev.exit

_ZNSt10unique_ptrI3JvmSt14default_deleteIS0_EED2Ev.exit: ; preds = %_ZNKSt14default_deleteI3JvmEclEPS0_.exit.i, %5, %2
  %.0 = phi ptr [ null, %2 ], [ %6, %5 ], [ %6, %_ZNKSt14default_deleteI3JvmEclEPS0_.exit.i ]
  ret ptr %.0
}